target datalayout = "e-m:e-p270:32:32-p271:32:32-p272:64:64-i64:64-i128:128-f80:128-n8:16:32:64-S128"
target triple = "x86_64-pc-linux-gnu"

@.str.8 = private unnamed_addr constant [35 x i8] c"../cpython/Objects/unicodeobject.c\00", align 1

; Function Attrs: nounwind uwtable
define dso_local ptr @PyUnicode_AsUCS4(ptr noundef %0, ptr noundef %1, i64 noundef %2, i32 noundef %3) #0 {
  %5 = alloca ptr, align 8
  %6 = alloca ptr, align 8
  %7 = alloca ptr, align 8
  %8 = alloca i64, align 8
  %9 = alloca i32, align 4
  store ptr %0, ptr %6, align 8, !tbaa !4
  store ptr %1, ptr %7, align 8, !tbaa !210
  store i64 %2, ptr %8, align 8, !tbaa !185
  store i32 %3, ptr %9, align 4, !tbaa !190
  %10 = load ptr, ptr %7, align 8, !tbaa !210
  %11 = icmp eq ptr %10, null
  br i1 %11, label %15, label %12

12:                                               ; preds = %4
  %13 = load i64, ptr %8, align 8, !tbaa !185
  %14 = icmp slt i64 %13, 0
  br i1 %14, label %15, label %16

15:                                               ; preds = %12, %4
  call void @_PyErr_BadInternalCall(ptr noundef @.str.8, i32 noundef 2627)
  store ptr null, ptr %5, align 8
  br label %22

16:                                               ; preds = %12
  %17 = load ptr, ptr %6, align 8, !tbaa !4
  %18 = load ptr, ptr %7, align 8, !tbaa !210
  %19 = load i64, ptr %8, align 8, !tbaa !185
  %20 = load i32, ptr %9, align 4, !tbaa !190
  %21 = call ptr @as_ucs4(ptr noundef %17, ptr noundef %18, i64 noundef %19, i32 noundef %20)
  store ptr %21, ptr %5, align 8
  br label %22

22:                                               ; preds = %16, %15
  %23 = load ptr, ptr %5, align 8
  ret ptr %23
}