; Function Attrs: nounwind uwtable
define dso_local ptr @PyUnicode_AsUCS4(ptr noundef %0, ptr noundef %1, i64 noundef %2, i32 noundef %3) local_unnamed_addr #0 {
  %5 = icmp eq ptr %1, null
  %6 = icmp slt i64 %2, 0
  %or.cond = or i1 %5, %6
  br i1 %or.cond, label %7, label %8

7:                                                ; preds = %4
  tail call void @_PyErr_BadInternalCall(ptr noundef nonnull @.str.8, i32 noundef 2627) #41
  br label %10

8:                                                ; preds = %4
  %9 = tail call fastcc ptr @as_ucs4(ptr noundef %0, ptr noundef nonnull %1, i64 noundef %2, i32 noundef %3)
  br label %10

10:                                               ; preds = %8, %7
  %.0 = phi ptr [ null, %7 ], [ %9, %8 ]
  ret ptr %.0
}